; ModuleID = '31/93.c'
source_filename = "31/93.c"
target datalayout = "e-m:e-p270:32:32-p271:32:32-p272:64:64-i64:64-f80:128-n8:16:32:64-S128"
target triple = "x86_64-pc-linux-gnu"

%struct.stu = type { [10 x i8], [32 x i8], i8, i32, float, [32 x i8], %struct.stu* }

@.str = private unnamed_addr constant [3 x i8] c"%s\00", align 1
@.str.1 = private unnamed_addr constant [4 x i8] c"end\00", align 1
@.str.2 = private unnamed_addr constant [15 x i8] c"%s %c %d %g %s\00", align 1
@.str.3 = private unnamed_addr constant [19 x i8] c"%s %s %c %d %g %s\0A\00", align 1

; Function Attrs: noinline nounwind uwtable
define dso_local i32 @main() #0 {
  %1 = alloca i32, align 4
  %2 = alloca %struct.stu*, align 8
  %3 = alloca %struct.stu*, align 8
  %4 = alloca i32, align 4
  store i32 0, i32* %1, align 4
  %5 = call noalias i8* @malloc(i64 100) #4
  %6 = bitcast i8* %5 to %struct.stu*
  store %struct.stu* %6, %struct.stu** %2, align 8
  %7 = load %struct.stu*, %struct.stu** %2, align 8
  %8 = getelementptr inbounds %struct.stu, %struct.stu* %7, i32 0, i32 6
  store %struct.stu* null, %struct.stu** %8, align 8
  store i32 0, i32* %4, align 4
  br label %9

9:                                                ; preds = %40, %0
  %10 = load %struct.stu*, %struct.stu** %2, align 8
  %11 = getelementptr inbounds %struct.stu, %struct.stu* %10, i32 0, i32 0
  %12 = getelementptr inbounds [10 x i8], [10 x i8]* %11, i64 0, i64 0
  %13 = call i32 (i8*, ...) @__isoc99_scanf(i8* getelementptr inbounds ([3 x i8], [3 x i8]* @.str, i64 0, i64 0), i8* %12)
  %14 = load %struct.stu*, %struct.stu** %2, align 8
  %15 = getelementptr inbounds %struct.stu, %struct.stu* %14, i32 0, i32 0
  %16 = getelementptr inbounds [10 x i8], [10 x i8]* %15, i64 0, i64 0
  %17 = call i32 @strcmp(i8* %16, i8* getelementptr inbounds ([4 x i8], [4 x i8]* @.str.1, i64 0, i64 0)) #5
  %18 = icmp ne i32 %17, 0
  br i1 %18, label %20, label %19

19:                                               ; preds = %9
  br label %43

20:                                               ; preds = %9
  %21 = load %struct.stu*, %struct.stu** %2, align 8
  %22 = getelementptr inbounds %struct.stu, %struct.stu* %21, i32 0, i32 1
  %23 = getelementptr inbounds [32 x i8], [32 x i8]* %22, i64 0, i64 0
  %24 = load %struct.stu*, %struct.stu** %2, align 8
  %25 = getelementptr inbounds %struct.stu, %struct.stu* %24, i32 0, i32 2
  %26 = load %struct.stu*, %struct.stu** %2, align 8
  %27 = getelementptr inbounds %struct.stu, %struct.stu* %26, i32 0, i32 3
  %28 = load %struct.stu*, %struct.stu** %2, align 8
  %29 = getelementptr inbounds %struct.stu, %struct.stu* %28, i32 0, i32 4
  %30 = load %struct.stu*, %struct.stu** %2, align 8
  %31 = getelementptr inbounds %struct.stu, %struct.stu* %30, i32 0, i32 5
  %32 = getelementptr inbounds [32 x i8], [32 x i8]* %31, i64 0, i64 0
  %33 = call i32 (i8*, ...) @__isoc99_scanf(i8* getelementptr inbounds ([15 x i8], [15 x i8]* @.str.2, i64 0, i64 0), i8* %23, i8* %25, i32* %27, float* %29, i8* %32)
  %34 = call noalias i8* @malloc(i64 100) #4
  %35 = bitcast i8* %34 to %struct.stu*
  store %struct.stu* %35, %struct.stu** %3, align 8
  %36 = load %struct.stu*, %struct.stu** %2, align 8
  %37 = load %struct.stu*, %struct.stu** %3, align 8
  %38 = getelementptr inbounds %struct.stu, %struct.stu* %37, i32 0, i32 6
  store %struct.stu* %36, %struct.stu** %38, align 8
  %39 = load %struct.stu*, %struct.stu** %3, align 8
  store %struct.stu* %39, %struct.stu** %2, align 8
  br label %40

40:                                               ; preds = %20
  %41 = load i32, i32* %4, align 4
  %42 = add nsw i32 %41, 1
  store i32 %42, i32* %4, align 4
  br label %9

43:                                               ; preds = %19
  %44 = load %struct.stu*, %struct.stu** %2, align 8
  %45 = getelementptr inbounds %struct.stu, %struct.stu* %44, i32 0, i32 6
  %46 = load %struct.stu*, %struct.stu** %45, align 8
  store %struct.stu* %46, %struct.stu** %2, align 8
  br label %47

47:                                               ; preds = %50, %43
  %48 = load %struct.stu*, %struct.stu** %2, align 8
  %49 = icmp ne %struct.stu* %48, null
  br i1 %49, label %50, label %75

50:                                               ; preds = %47
  %51 = load %struct.stu*, %struct.stu** %2, align 8
  %52 = getelementptr inbounds %struct.stu, %struct.stu* %51, i32 0, i32 0
  %53 = getelementptr inbounds [10 x i8], [10 x i8]* %52, i64 0, i64 0
  %54 = load %struct.stu*, %struct.stu** %2, align 8
  %55 = getelementptr inbounds %struct.stu, %struct.stu* %54, i32 0, i32 1
  %56 = getelementptr inbounds [32 x i8], [32 x i8]* %55, i64 0, i64 0
  %57 = load %struct.stu*, %struct.stu** %2, align 8
  %58 = getelementptr inbounds %struct.stu, %struct.stu* %57, i32 0, i32 2
  %59 = load i8, i8* %58, align 2
  %60 = sext i8 %59 to i32
  %61 = load %struct.stu*, %struct.stu** %2, align 8
  %62 = getelementptr inbounds %struct.stu, %struct.stu* %61, i32 0, i32 3
  %63 = load i32, i32* %62, align 4
  %64 = load %struct.stu*, %struct.stu** %2, align 8
  %65 = getelementptr inbounds %struct.stu, %struct.stu* %64, i32 0, i32 4
  %66 = load float, float* %65, align 8
  %67 = fpext float %66 to double
  %68 = load %struct.stu*, %struct.stu** %2, align 8
  %69 = getelementptr inbounds %struct.stu, %struct.stu* %68, i32 0, i32 5
  %70 = getelementptr inbounds [32 x i8], [32 x i8]* %69, i64 0, i64 0
  %71 = call i32 (i8*, ...) @printf(i8* getelementptr inbounds ([19 x i8], [19 x i8]* @.str.3, i64 0, i64 0), i8* %53, i8* %56, i32 %60, i32 %63, double %67, i8* %70)
  %72 = load %struct.stu*, %struct.stu** %2, align 8
  %73 = getelementptr inbounds %struct.stu, %struct.stu* %72, i32 0, i32 6
  %74 = load %struct.stu*, %struct.stu** %73, align 8
  store %struct.stu* %74, %struct.stu** %2, align 8
  br label %47

75:                                               ; preds = %47
  %76 = load i32, i32* %1, align 4
  ret i32 %76
}

; Function Attrs: nounwind
declare dso_local noalias i8* @malloc(i64) #1

declare dso_local i32 @__isoc99_scanf(i8*, ...) #2

; Function Attrs: nounwind readonly
declare dso_local i32 @strcmp(i8*, i8*) #3

declare dso_local i32 @printf(i8*, ...) #2


!llvm.module.flags = !{!0}
!llvm.ident = !{!1}

!0 = !{i32 1, !"wchar_size", i32 4}
!1 = !{!"clang version 10.0.0-4ubuntu1 "}
